target datalayout = "e-m:e-p270:32:32-p271:32:32-p272:64:64-i64:64-i128:128-f80:128-n8:16:32:64-S128"
target triple = "x86_64-pc-linux-gnu"

%"class.IndexSet::BitBlock" = type { %union.anon }
%union.anon = type { [4 x i64] }
%class.PhaseLive = type <{ %class.Phase, ptr, ptr, ptr, ptr, ptr, ptr, ptr, i32, [4 x i8], ptr, i8, [7 x i8] }>
%class.Phase = type { i32, ptr }
%class.Block_Array = type { i32, ptr, ptr }
%class.IndexSet = type { i32, i32, ptr, [16 x ptr], i32, ptr }
%class.Block = type { %class.CFGElement, %class.Node_List, %class.Block_Array, i32, i32, i32, ptr, ptr, i32, i32, i32, i32, i32, i32, i32, i32, i8, i32 }
%class.CFGElement = type { ptr, double }
%class.Node_List = type <{ %class.Node_Array, i32, [4 x i8] }>
%class.Node_Array = type { ptr, i32, ptr }
%class.IndexSetIterator = type { i64, i32, i32, i32, i32, ptr, ptr, ptr }

@_ZN8IndexSet12_empty_blockE = external global %"class.IndexSet::BitBlock", align 8

; Function Attrs: mustprogress nounwind uwtable
define linkonce_odr hidden noundef i64 @_Z9mask_bitsll(i64 noundef %0, i64 noundef %1) #1 comdat {
  %3 = alloca i64, align 8
  %4 = alloca i64, align 8
  store i64 %0, ptr %3, align 8
  store i64 %1, ptr %4, align 8
  %5 = load i64, ptr %3, align 8
  %6 = load i64, ptr %4, align 8
  %7 = and i64 %5, %6
  ret i64 %7
}

; Function Attrs: mustprogress nounwind uwtable
define linkonce_odr hidden noundef i32 @_Z23count_trailing_zeros_64m(i64 noundef %0) #1 comdat {
  %2 = alloca i64, align 8
  store i64 %0, ptr %2, align 8
  %3 = load i64, ptr %2, align 8
  %4 = call i64 @llvm.cttz.i64(i64 %3, i1 true)
  %5 = trunc i64 %4 to i32
  ret i32 %5
}

; Function Attrs: mustprogress nounwind uwtable
define linkonce_odr hidden noundef ptr @_ZN8IndexSet8BitBlock5wordsEv(ptr noundef nonnull align 8 dereferenceable(32) %0) #1 comdat align 2 {
  %2 = alloca ptr, align 8
  store ptr %0, ptr %2, align 8
  %3 = load ptr, ptr %2, align 8
  %4 = getelementptr inbounds %"class.IndexSet::BitBlock", ptr %3, i32 0, i32 0
  %5 = getelementptr inbounds [4 x i64], ptr %4, i64 0, i64 0
  ret ptr %5
}

; Function Attrs: mustprogress nounwind uwtable
define linkonce_odr hidden noundef i32 @_ZN8IndexSet13get_bit_indexEj(i32 noundef %0) #1 comdat align 2 {
  %2 = alloca i32, align 4
  store i32 %0, ptr %2, align 4
  %3 = load i32, ptr %2, align 4
  %4 = zext i32 %3 to i64
  %5 = call noundef i64 @_Z9mask_bitsll(i64 noundef %4, i64 noundef 63)
  %6 = trunc i64 %5 to i32
  ret i32 %6
}

; Function Attrs: mustprogress nounwind uwtable
define linkonce_odr hidden noundef i32 @_ZN8IndexSet14get_word_indexEj(i32 noundef %0) #1 comdat align 2 {
  %2 = alloca i32, align 4
  store i32 %0, ptr %2, align 4
  %3 = load i32, ptr %2, align 4
  %4 = lshr i32 %3, 6
  %5 = zext i32 %4 to i64
  %6 = call noundef i64 @_Z9mask_bitsll(i64 noundef %5, i64 noundef 3)
  %7 = trunc i64 %6 to i32
  ret i32 %7
}

; Function Attrs: mustprogress nounwind uwtable
define linkonce_odr hidden noundef i32 @_ZN8IndexSet15get_block_indexEj(i32 noundef %0) #1 comdat align 2 {
  %2 = alloca i32, align 4
  store i32 %0, ptr %2, align 4
  %3 = load i32, ptr %2, align 4
  %4 = lshr i32 %3, 8
  ret i32 %4
}

; Function Attrs: mustprogress nounwind uwtable
define linkonce_odr hidden noundef i32 @_Z20count_trailing_zerosImTnNSt9enable_ifIXcvbsr3std11is_integralIT_EE5valueEiE4typeELi0ETnNS0_IXcvblestS1_Lm8EEiE4typeELi0EEjS1_(i64 noundef %0) #1 comdat {
  %2 = alloca i64, align 8
  store i64 %0, ptr %2, align 8
  %3 = load i64, ptr %2, align 8
  %4 = call noundef i32 @_Z23count_trailing_zeros_64m(i64 noundef %3)
  ret i32 %4
}

; Function Attrs: mustprogress nounwind uwtable
define linkonce_odr hidden noundef zeroext i1 @_ZN8IndexSet8BitBlock6insertEj(ptr noundef nonnull align 8 dereferenceable(32) %0, i32 noundef %1) #1 comdat align 2 {
  %3 = alloca ptr, align 8
  %4 = alloca i32, align 4
  %5 = alloca i32, align 4
  %6 = alloca i64, align 8
  %7 = alloca i64, align 8
  %8 = alloca i64, align 8
  store ptr %0, ptr %3, align 8
  store i32 %1, ptr %4, align 4
  %9 = load ptr, ptr %3, align 8
  %10 = load i32, ptr %4, align 4
  %11 = call noundef i32 @_ZN8IndexSet14get_word_indexEj(i32 noundef %10)
  store i32 %11, ptr %5, align 4
  %12 = load i32, ptr %4, align 4
  %13 = call noundef i32 @_ZN8IndexSet13get_bit_indexEj(i32 noundef %12)
  %14 = zext i32 %13 to i64
  store i64 %14, ptr %6, align 8
  %15 = load i64, ptr %6, align 8
  %16 = shl i64 1, %15
  store i64 %16, ptr %7, align 8
  %17 = call noundef ptr @_ZN8IndexSet8BitBlock5wordsEv(ptr noundef nonnull align 8 dereferenceable(32) %9)
  %18 = load i32, ptr %5, align 4
  %19 = zext i32 %18 to i64
  %20 = getelementptr inbounds i64, ptr %17, i64 %19
  %21 = load i64, ptr %20, align 8
  store i64 %21, ptr %8, align 8
  %22 = load i64, ptr %8, align 8
  %23 = load i64, ptr %7, align 8
  %24 = or i64 %22, %23
  %25 = call noundef ptr @_ZN8IndexSet8BitBlock5wordsEv(ptr noundef nonnull align 8 dereferenceable(32) %9)
  %26 = load i32, ptr %5, align 4
  %27 = zext i32 %26 to i64
  %28 = getelementptr inbounds i64, ptr %25, i64 %27
  store i64 %24, ptr %28, align 8
  %29 = load i64, ptr %8, align 8
  %30 = load i64, ptr %7, align 8
  %31 = and i64 %29, %30
  %32 = icmp ne i64 %31, 0
  ret i1 %32
}

; Function Attrs: mustprogress nounwind uwtable
define linkonce_odr hidden noundef ptr @_ZNK8IndexSet20get_block_containingEj(ptr noundef nonnull align 8 dereferenceable(160) %0, i32 noundef %1) #1 comdat align 2 {
  %3 = alloca ptr, align 8
  %4 = alloca i32, align 4
  store ptr %0, ptr %3, align 8
  store i32 %1, ptr %4, align 4
  %5 = load ptr, ptr %3, align 8
  %6 = getelementptr inbounds %class.IndexSet, ptr %5, i32 0, i32 2
  %7 = load ptr, ptr %6, align 8
  %8 = load i32, ptr %4, align 4
  %9 = call noundef i32 @_ZN8IndexSet15get_block_indexEj(i32 noundef %8)
  %10 = zext i32 %9 to i64
  %11 = getelementptr inbounds ptr, ptr %7, i64 %10
  %12 = load ptr, ptr %11, align 8
  ret ptr %12
}

; Function Attrs: mustprogress nounwind uwtable
define linkonce_odr hidden noundef i32 @_ZN16IndexSetIterator10next_valueEv(ptr noundef nonnull align 8 dereferenceable(48) %0) #1 comdat align 2 {
  %2 = alloca ptr, align 8
  %3 = alloca i64, align 8
  %4 = alloca i32, align 4
  store ptr %0, ptr %2, align 8
  %5 = load ptr, ptr %2, align 8
  %6 = getelementptr inbounds %class.IndexSetIterator, ptr %5, i32 0, i32 0
  %7 = load i64, ptr %6, align 8
  store i64 %7, ptr %3, align 8
  %8 = load i64, ptr %3, align 8
  %9 = call noundef i32 @_Z20count_trailing_zerosImTnNSt9enable_ifIXcvbsr3std11is_integralIT_EE5valueEiE4typeELi0ETnNS0_IXcvblestS1_Lm8EEiE4typeELi0EEjS1_(i64 noundef %8)
  store i32 %9, ptr %4, align 4
  %10 = load i64, ptr %3, align 8
  %11 = load i32, ptr %4, align 4
  %12 = zext i32 %11 to i64
  %13 = lshr i64 %10, %12
  %14 = sub i64 %13, 1
  %15 = getelementptr inbounds %class.IndexSetIterator, ptr %5, i32 0, i32 0
  store i64 %14, ptr %15, align 8
  %16 = load i32, ptr %4, align 4
  %17 = getelementptr inbounds %class.IndexSetIterator, ptr %5, i32 0, i32 1
  %18 = load i32, ptr %17, align 8
  %19 = add i32 %18, %16
  store i32 %19, ptr %17, align 8
  %20 = getelementptr inbounds %class.IndexSetIterator, ptr %5, i32 0, i32 1
  %21 = load i32, ptr %20, align 8
  ret i32 %21
}

; Function Attrs: mustprogress nounwind uwtable
define linkonce_odr hidden noundef zeroext i1 @_ZN8IndexSet6insertEj(ptr noundef nonnull align 8 dereferenceable(160) %0, i32 noundef %1) #1 comdat align 2 {
  %3 = alloca i1, align 1
  %4 = alloca ptr, align 8
  %5 = alloca i32, align 4
  %6 = alloca ptr, align 8
  %7 = alloca i8, align 1
  store ptr %0, ptr %4, align 8
  store i32 %1, ptr %5, align 4
  %8 = load ptr, ptr %4, align 8
  %9 = load i32, ptr %5, align 4
  %10 = icmp eq i32 %9, 0
  br i1 %10, label %11, label %12

11:                                               ; preds = %2
  store i1 false, ptr %3, align 1
  br label %35

12:                                               ; preds = %2
  %13 = load i32, ptr %5, align 4
  %14 = call noundef ptr @_ZNK8IndexSet20get_block_containingEj(ptr noundef nonnull align 8 dereferenceable(160) %8, i32 noundef %13)
  store ptr %14, ptr %6, align 8
  %15 = load ptr, ptr %6, align 8
  %16 = icmp eq ptr %15, @_ZN8IndexSet12_empty_blockE
  br i1 %16, label %17, label %20

17:                                               ; preds = %12
  %18 = load i32, ptr %5, align 4
  %19 = call noundef ptr @_ZN8IndexSet22alloc_block_containingEj(ptr noundef nonnull align 8 dereferenceable(160) %8, i32 noundef %18)
  store ptr %19, ptr %6, align 8
  br label %20

20:                                               ; preds = %17, %12
  %21 = load ptr, ptr %6, align 8
  %22 = load i32, ptr %5, align 4
  %23 = call noundef zeroext i1 @_ZN8IndexSet8BitBlock6insertEj(ptr noundef nonnull align 8 dereferenceable(32) %21, i32 noundef %22)
  %24 = zext i1 %23 to i8
  store i8 %24, ptr %7, align 1
  %25 = load i8, ptr %7, align 1
  %26 = trunc i8 %25 to i1
  br i1 %26, label %31, label %27

27:                                               ; preds = %20
  %28 = getelementptr inbounds %class.IndexSet, ptr %8, i32 0, i32 0
  %29 = load i32, ptr %28, align 8
  %30 = add i32 %29, 1
  store i32 %30, ptr %28, align 8
  br label %31

31:                                               ; preds = %27, %20
  %32 = load i8, ptr %7, align 1
  %33 = trunc i8 %32 to i1
  %34 = xor i1 %33, true
  store i1 %34, ptr %3, align 1
  br label %35

35:                                               ; preds = %31, %11
  %36 = load i1, ptr %3, align 1
  ret i1 %36
}

; Function Attrs: mustprogress nounwind uwtable
define linkonce_odr hidden noundef i32 @_ZN16IndexSetIterator4nextEv(ptr noundef nonnull align 8 dereferenceable(48) %0) #1 comdat align 2 {
  %2 = alloca i32, align 4
  %3 = alloca ptr, align 8
  store ptr %0, ptr %3, align 8
  %4 = load ptr, ptr %3, align 8
  %5 = getelementptr inbounds %class.IndexSetIterator, ptr %4, i32 0, i32 0
  %6 = load i64, ptr %5, align 8
  %7 = icmp ne i64 %6, 0
  br i1 %7, label %8, label %10

8:                                                ; preds = %1
  %9 = call noundef i32 @_ZN16IndexSetIterator10next_valueEv(ptr noundef nonnull align 8 dereferenceable(48) %4)
  store i32 %9, ptr %2, align 4
  br label %23

10:                                               ; preds = %1
  %11 = getelementptr inbounds %class.IndexSetIterator, ptr %4, i32 0, i32 2
  %12 = load i32, ptr %11, align 4
  %13 = icmp ult i32 %12, 4
  br i1 %13, label %20, label %14

14:                                               ; preds = %10
  %15 = getelementptr inbounds %class.IndexSetIterator, ptr %4, i32 0, i32 3
  %16 = load i32, ptr %15, align 8
  %17 = getelementptr inbounds %class.IndexSetIterator, ptr %4, i32 0, i32 4
  %18 = load i32, ptr %17, align 4
  %19 = icmp ult i32 %16, %18
  br i1 %19, label %20, label %22

20:                                               ; preds = %14, %10
  %21 = call noundef i32 @_ZN16IndexSetIterator16advance_and_nextEv(ptr noundef nonnull align 8 dereferenceable(48) %4)
  store i32 %21, ptr %2, align 4
  br label %23

22:                                               ; preds = %14
  store i32 0, ptr %2, align 4
  br label %23

23:                                               ; preds = %22, %20, %8
  %24 = load i32, ptr %2, align 4
  ret i32 %24
}

; Function Attrs: mustprogress nounwind uwtable
define linkonce_odr hidden void @_ZN16IndexSetIteratorC2EP8IndexSet(ptr noundef nonnull align 8 dereferenceable(48) %0, ptr noundef %1) unnamed_addr #1 comdat align 2 {
  %3 = alloca ptr, align 8
  %4 = alloca ptr, align 8
  store ptr %0, ptr %3, align 8
  store ptr %1, ptr %4, align 8
  %5 = load ptr, ptr %3, align 8
  %6 = getelementptr inbounds %class.IndexSetIterator, ptr %5, i32 0, i32 0
  store i64 0, ptr %6, align 8
  %7 = getelementptr inbounds %class.IndexSetIterator, ptr %5, i32 0, i32 1
  store i32 0, ptr %7, align 8
  %8 = getelementptr inbounds %class.IndexSetIterator, ptr %5, i32 0, i32 2
  store i32 4, ptr %8, align 4
  %9 = getelementptr inbounds %class.IndexSetIterator, ptr %5, i32 0, i32 3
  store i32 0, ptr %9, align 8
  %10 = getelementptr inbounds %class.IndexSetIterator, ptr %5, i32 0, i32 4
  %11 = load ptr, ptr %4, align 8
  %12 = call noundef zeroext i1 @_ZNK8IndexSet8is_emptyEv(ptr noundef nonnull align 8 dereferenceable(160) %11)
  br i1 %12, label %13, label %14

13:                                               ; preds = %2
  br label %18

14:                                               ; preds = %2
  %15 = load ptr, ptr %4, align 8
  %16 = getelementptr inbounds %class.IndexSet, ptr %15, i32 0, i32 1
  %17 = load i32, ptr %16, align 4
  br label %18

18:                                               ; preds = %14, %13
  %19 = phi i32 [ 0, %13 ], [ %17, %14 ]
  store i32 %19, ptr %10, align 4
  %20 = getelementptr inbounds %class.IndexSetIterator, ptr %5, i32 0, i32 5
  store ptr null, ptr %20, align 8
  %21 = getelementptr inbounds %class.IndexSetIterator, ptr %5, i32 0, i32 6
  %22 = load ptr, ptr %4, align 8
  %23 = getelementptr inbounds %class.IndexSet, ptr %22, i32 0, i32 2
  %24 = load ptr, ptr %23, align 8
  store ptr %24, ptr %21, align 8
  %25 = getelementptr inbounds %class.IndexSetIterator, ptr %5, i32 0, i32 7
  %26 = load ptr, ptr %4, align 8
  store ptr %26, ptr %25, align 8
  ret void
}

; Function Attrs: mustprogress nounwind uwtable
define linkonce_odr hidden noundef zeroext i1 @_ZNK8IndexSet8is_emptyEv(ptr noundef nonnull align 8 dereferenceable(160) %0) #1 comdat align 2 {
  %2 = alloca ptr, align 8
  store ptr %0, ptr %2, align 8
  %3 = load ptr, ptr %2, align 8
  %4 = getelementptr inbounds %class.IndexSet, ptr %3, i32 0, i32 0
  %5 = load i32, ptr %4, align 8
  %6 = icmp eq i32 %5, 0
  ret i1 %6
}

; Function Attrs: mustprogress nounwind uwtable
define hidden void @_ZN9PhaseLive10add_liveinEP5BlockP8IndexSet(ptr noundef nonnull align 8 dereferenceable(89) %0, ptr noundef %1, ptr noundef %2) #1 align 2 {
  %4 = alloca ptr, align 8
  %5 = alloca ptr, align 8
  %6 = alloca ptr, align 8
  %7 = alloca ptr, align 8
  %8 = alloca %class.IndexSetIterator, align 8
  %9 = alloca i32, align 4
  store ptr %0, ptr %4, align 8
  store ptr %1, ptr %5, align 8
  store ptr %2, ptr %6, align 8
  %10 = load ptr, ptr %4, align 8
  %11 = getelementptr inbounds %class.PhaseLive, ptr %10, i32 0, i32 2
  %12 = load ptr, ptr %11, align 8
  %13 = load ptr, ptr %5, align 8
  %14 = getelementptr inbounds %class.Block, ptr %13, i32 0, i32 4
  %15 = load i32, ptr %14, align 4
  %16 = sub i32 %15, 1
  %17 = zext i32 %16 to i64
  %18 = getelementptr inbounds %class.IndexSet, ptr %12, i64 %17
  store ptr %18, ptr %7, align 8
  %19 = load ptr, ptr %7, align 8
  %20 = call noundef zeroext i1 @_ZNK8IndexSet8is_emptyEv(ptr noundef nonnull align 8 dereferenceable(160) %19)
  br i1 %20, label %31, label %21

21:                                               ; preds = %3
  %22 = load ptr, ptr %6, align 8
  call void @_ZN16IndexSetIteratorC2EP8IndexSet(ptr noundef nonnull align 8 dereferenceable(48) %8, ptr noundef %22)
  br label %23

23:                                               ; preds = %26, %21
  %24 = call noundef i32 @_ZN16IndexSetIterator4nextEv(ptr noundef nonnull align 8 dereferenceable(48) %8)
  store i32 %24, ptr %9, align 4
  %25 = icmp ne i32 %24, 0
  br i1 %25, label %26, label %30

26:                                               ; preds = %23
  %27 = load ptr, ptr %7, align 8
  %28 = load i32, ptr %9, align 4
  %29 = call noundef zeroext i1 @_ZN8IndexSet6insertEj(ptr noundef nonnull align 8 dereferenceable(160) %27, i32 noundef %28)
  br label %23, !llvm.loop !22

30:                                               ; preds = %23
  br label %31

31:                                               ; preds = %30, %3
  ret void
}