; Function Attrs: mustprogress nounwind uwtable
define hidden void @_ZN9PhaseLive10add_liveinEP5BlockP8IndexSet(ptr nocapture noundef nonnull readonly align 8 dereferenceable(89) %0, ptr nocapture noundef readonly %1, ptr noundef %2) local_unnamed_addr #0 align 2 {
  %4 = alloca %class.IndexSetIterator, align 8
  %5 = getelementptr inbounds i8, ptr %0, i64 24
  %6 = load ptr, ptr %5, align 8
  %7 = getelementptr inbounds i8, ptr %1, i64 76
  %8 = load i32, ptr %7, align 4
  %9 = add i32 %8, -1
  %10 = zext i32 %9 to i64
  %11 = getelementptr inbounds %class.IndexSet, ptr %6, i64 %10
  %12 = load i32, ptr %11, align 8
  %13 = icmp eq i32 %12, 0
  br i1 %13, label %_ZN16IndexSetIterator4nextEv.exit.thread, label %14

14:                                               ; preds = %3
  store i64 0, ptr %4, align 8
  %15 = getelementptr inbounds i8, ptr %4, i64 8
  store i32 0, ptr %15, align 8
  %16 = getelementptr inbounds i8, ptr %4, i64 12
  store i32 4, ptr %16, align 4
  %17 = getelementptr inbounds i8, ptr %4, i64 16
  store i32 0, ptr %17, align 8
  %18 = load i32, ptr %2, align 8
  %19 = icmp eq i32 %18, 0
  br i1 %19, label %_ZN16IndexSetIteratorC2EP8IndexSet.exit, label %20

20:                                               ; preds = %14
  %21 = getelementptr inbounds i8, ptr %2, i64 4
  %22 = load i32, ptr %21, align 4
  br label %_ZN16IndexSetIteratorC2EP8IndexSet.exit

_ZN16IndexSetIteratorC2EP8IndexSet.exit:          ; preds = %14, %20
  %23 = phi i32 [ %22, %20 ], [ 0, %14 ]
  %24 = getelementptr inbounds i8, ptr %4, i64 20
  store i32 %23, ptr %24, align 4
  %25 = getelementptr inbounds i8, ptr %4, i64 24
  store ptr null, ptr %25, align 8
  %26 = getelementptr inbounds i8, ptr %4, i64 32
  %27 = getelementptr inbounds i8, ptr %2, i64 8
  %28 = load ptr, ptr %27, align 8
  store ptr %28, ptr %26, align 8
  %29 = getelementptr inbounds i8, ptr %4, i64 40
  store ptr %2, ptr %29, align 8
  %30 = getelementptr inbounds i8, ptr %11, i64 8
  br label %31

31:                                               ; preds = %_ZN8IndexSet6insertEj.exit, %_ZN16IndexSetIteratorC2EP8IndexSet.exit
  %32 = phi i64 [ %.pre, %_ZN8IndexSet6insertEj.exit ], [ 0, %_ZN16IndexSetIteratorC2EP8IndexSet.exit ]
  %.not.i = icmp eq i64 %32, 0
  br i1 %.not.i, label %40, label %33

33:                                               ; preds = %31
  %34 = call range(i64 0, 65) i64 @llvm.cttz.i64(i64 %32, i1 true)
  %35 = trunc nuw nsw i64 %34 to i32
  %36 = lshr i64 %32, %34
  %37 = add i64 %36, -1
  store i64 %37, ptr %4, align 8
  %38 = load i32, ptr %15, align 8
  %39 = add i32 %38, %35
  store i32 %39, ptr %15, align 8
  br label %_ZN16IndexSetIterator4nextEv.exit

40:                                               ; preds = %31
  %41 = load i32, ptr %16, align 4
  %42 = icmp ult i32 %41, 4
  br i1 %42, label %47, label %43

43:                                               ; preds = %40
  %44 = load i32, ptr %17, align 8
  %45 = load i32, ptr %24, align 4
  %46 = icmp ult i32 %44, %45
  br i1 %46, label %47, label %_ZN16IndexSetIterator4nextEv.exit.thread

47:                                               ; preds = %43, %40
  %48 = call noundef i32 @_ZN16IndexSetIterator16advance_and_nextEv(ptr noundef nonnull align 8 dereferenceable(48) %4) #6
  br label %_ZN16IndexSetIterator4nextEv.exit

_ZN16IndexSetIterator4nextEv.exit:                ; preds = %33, %47
  %.0.i = phi i32 [ %39, %33 ], [ %48, %47 ]
  %.not = icmp eq i32 %.0.i, 0
  br i1 %.not, label %_ZN16IndexSetIterator4nextEv.exit.thread, label %49

49:                                               ; preds = %_ZN16IndexSetIterator4nextEv.exit
  %50 = load ptr, ptr %30, align 8
  %51 = lshr i32 %.0.i, 8
  %52 = zext nneg i32 %51 to i64
  %53 = getelementptr inbounds ptr, ptr %50, i64 %52
  %54 = load ptr, ptr %53, align 8
  %55 = icmp eq ptr %54, @_ZN8IndexSet12_empty_blockE
  br i1 %55, label %56, label %58

56:                                               ; preds = %49
  %57 = call noundef ptr @_ZN8IndexSet22alloc_block_containingEj(ptr noundef nonnull align 8 dereferenceable(160) %11, i32 noundef %.0.i) #6
  br label %58

58:                                               ; preds = %56, %49
  %.09.i = phi ptr [ %57, %56 ], [ %54, %49 ]
  %59 = lshr i32 %.0.i, 6
  %60 = and i32 %59, 3
  %61 = and i32 %.0.i, 63
  %62 = zext nneg i32 %61 to i64
  %63 = shl nuw i64 1, %62
  %64 = zext nneg i32 %60 to i64
  %65 = getelementptr inbounds i64, ptr %.09.i, i64 %64
  %66 = load i64, ptr %65, align 8
  %67 = or i64 %66, %63
  store i64 %67, ptr %65, align 8
  %68 = and i64 %66, %63
  %.not.i5 = icmp eq i64 %68, 0
  br i1 %.not.i5, label %69, label %_ZN8IndexSet6insertEj.exit

69:                                               ; preds = %58
  %70 = load i32, ptr %11, align 8
  %71 = add i32 %70, 1
  store i32 %71, ptr %11, align 8
  br label %_ZN8IndexSet6insertEj.exit

_ZN8IndexSet6insertEj.exit:                       ; preds = %58, %69
  %.pre = load i64, ptr %4, align 8
  br label %31, !llvm.loop !18

_ZN16IndexSetIterator4nextEv.exit.thread:         ; preds = %43, %_ZN16IndexSetIterator4nextEv.exit, %3
  ret void
}